; Function Attrs: nounwind uwtable
define range(i32 -1, -2147483648) i32 @H5S_select_release(ptr noundef %0) local_unnamed_addr #3 {
  %2 = getelementptr inbounds i8, ptr %0, i64 80
  %3 = load ptr, ptr %2, align 8
  %.not = icmp eq ptr %3, null
  br i1 %.not, label %13, label %4

4:                                                ; preds = %1
  %5 = getelementptr inbounds i8, ptr %3, i64 16
  %6 = load ptr, ptr %5, align 8
  %7 = tail call i32 %6(ptr noundef nonnull %0) #7
  %8 = icmp slt i32 %7, 0
  br i1 %8, label %9, label %13

9:                                                ; preds = %4
  %10 = load i64, ptr @H5E_DATASPACE_g, align 8
  %11 = load i64, ptr @H5E_CANTRELEASE_g, align 8
  %12 = tail call i32 (ptr, ptr, i32, i64, i64, ptr, ...) @H5E_printf_stack(ptr noundef nonnull @.str.1, ptr noundef nonnull @__func__.H5S_select_release, i32 noundef 268, i64 noundef %10, i64 noundef %11, ptr noundef nonnull @.str.8) #7
  br label %13

13:                                               ; preds = %1, %4, %9
  %.0 = phi i32 [ -1, %9 ], [ %7, %4 ], [ 0, %1 ]
  ret i32 %.0
}